00010054 <_start>:
   10054:	84000137          	lui	x2,0x84000
   10058:	ff010113          	addi	x2,x2,-16 # 83fffff0 <__global_pointer$+0x83fee47c>
   1005c:	00112623          	sw	x1,12(x2)
   10060:	00812423          	sw	x8,8(x2)
   10064:	01a12223          	sw	x26,4(x2)
   10068:	deffed37          	lui	x26,0xdeffe
   1006c:	effd0d13          	addi	x26,x26,-257 # deffdeff <__global_pointer$+0xdefec38b>
   10070:	00000097          	auipc	x1,0x0
   10074:	128080e7          	jalr	296(x1) # 10198 <test_uncorrelated_branches>
   10078:	00050413          	mv	x8,x10
   1007c:	00000097          	auipc	x1,0x0
   10080:	174080e7          	jalr	372(x1) # 101f0 <test_correlated_branches>
   10084:	00a46433          	or	x8,x8,x10
   10088:	00000097          	auipc	x1,0x0
   1008c:	1d8080e7          	jalr	472(x1) # 10260 <test_mixed>
   10090:	00a46433          	or	x8,x8,x10
   10094:	00c00513          	li	x10,12
   10098:	00000097          	auipc	x1,0x0
   1009c:	264080e7          	jalr	612(x1) # 102fc <fib>
   100a0:	00040863          	beqz	x8,100b0 <_start+0x5c>
   100a4:	00baed37          	lui	x26,0xbae
   100a8:	badd0d13          	addi	x26,x26,-1107 # badbad <__global_pointer$+0xb9c039>
   100ac:	00c0006f          	j	100b8 <_start+0x64>
   100b0:	600d6d37          	lui	x26,0x600d6
   100b4:	00dd0d13          	addi	x26,x26,13 # 600d600d <__global_pointer$+0x600c4499>
   100b8:	0000006f          	j	100b8 <_start+0x64>

000100bc <uncorrelated_branches_kernel>:
   100bc:	00050793          	mv	x15,x10
   100c0:	00157513          	andi	x10,x10,1
   100c4:	0027f713          	andi	x14,x15,2
   100c8:	00070463          	beqz	x14,100d0 <uncorrelated_branches_kernel+0x14>
   100cc:	00256513          	ori	x10,x10,2
   100d0:	0047f713          	andi	x14,x15,4
   100d4:	00070463          	beqz	x14,100dc <uncorrelated_branches_kernel+0x20>
   100d8:	00456513          	ori	x10,x10,4
   100dc:	0087f713          	andi	x14,x15,8
   100e0:	00070463          	beqz	x14,100e8 <uncorrelated_branches_kernel+0x2c>
   100e4:	00856513          	ori	x10,x10,8
   100e8:	0107f713          	andi	x14,x15,16
   100ec:	00070463          	beqz	x14,100f4 <uncorrelated_branches_kernel+0x38>
   100f0:	01056513          	ori	x10,x10,16
   100f4:	0207f713          	andi	x14,x15,32
   100f8:	00070463          	beqz	x14,10100 <uncorrelated_branches_kernel+0x44>
   100fc:	02056513          	ori	x10,x10,32
   10100:	0407f713          	andi	x14,x15,64
   10104:	00070463          	beqz	x14,1010c <uncorrelated_branches_kernel+0x50>
   10108:	04056513          	ori	x10,x10,64
   1010c:	01879793          	slli	x15,x15,0x18
   10110:	4187d793          	srai	x15,x15,0x18
   10114:	0007d463          	bgez	x15,1011c <uncorrelated_branches_kernel+0x60>
   10118:	08056513          	ori	x10,x10,128
   1011c:	00008067          	ret

00010120 <correlated_branches_kernel>:
   10120:	00050793          	mv	x15,x10
   10124:	00157613          	andi	x12,x10,1
   10128:	00357713          	andi	x14,x10,3
   1012c:	00300693          	li	x13,3
   10130:	00d70463          	beq	x14,x13,10138 <correlated_branches_kernel+0x18>
   10134:	00060713          	mv	x14,x12
   10138:	0077f693          	andi	x13,x15,7
   1013c:	00700613          	li	x12,7
   10140:	00c68463          	beq	x13,x12,10148 <correlated_branches_kernel+0x28>
   10144:	00070693          	mv	x13,x14
   10148:	00f7f713          	andi	x14,x15,15
   1014c:	00f00613          	li	x12,15
   10150:	00c70463          	beq	x14,x12,10158 <correlated_branches_kernel+0x38>
   10154:	00068713          	mv	x14,x13
   10158:	01f7f693          	andi	x13,x15,31
   1015c:	01f00613          	li	x12,31
   10160:	00c68463          	beq	x13,x12,10168 <correlated_branches_kernel+0x48>
   10164:	00070693          	mv	x13,x14
   10168:	03f7f713          	andi	x14,x15,63
   1016c:	03f00613          	li	x12,63
   10170:	00c70463          	beq	x14,x12,10178 <correlated_branches_kernel+0x58>
   10174:	00068713          	mv	x14,x13
   10178:	07f7f513          	andi	x10,x15,127
   1017c:	07f00693          	li	x13,127
   10180:	00d50463          	beq	x10,x13,10188 <correlated_branches_kernel+0x68>
   10184:	00070513          	mv	x10,x14
   10188:	0ff00713          	li	x14,255
   1018c:	00e79463          	bne	x15,x14,10194 <correlated_branches_kernel+0x74>
   10190:	00078513          	mv	x10,x15
   10194:	00008067          	ret

00010198 <test_uncorrelated_branches>:
   10198:	ff010113          	addi	x2,x2,-16
   1019c:	00112623          	sw	x1,12(x2)
   101a0:	00812423          	sw	x8,8(x2)
   101a4:	00912223          	sw	x9,4(x2)
   101a8:	00000413          	li	x8,0
   101ac:	0ff00493          	li	x9,255
   101b0:	00040513          	mv	x10,x8
   101b4:	00000097          	auipc	x1,0x0
   101b8:	f08080e7          	jalr	-248(x1) # 100bc <uncorrelated_branches_kernel>
   101bc:	0ff57513          	andi	x10,x10,255
   101c0:	00851c63          	bne	x10,x8,101d8 <test_uncorrelated_branches+0x40>
   101c4:	00140413          	addi	x8,x8,1
   101c8:	0ff47413          	andi	x8,x8,255
   101cc:	fe9412e3          	bne	x8,x9,101b0 <test_uncorrelated_branches+0x18>
   101d0:	00000513          	li	x10,0
   101d4:	0080006f          	j	101dc <test_uncorrelated_branches+0x44>
   101d8:	00100513          	li	x10,1
   101dc:	00c12083          	lw	x1,12(x2)
   101e0:	00812403          	lw	x8,8(x2)
   101e4:	00412483          	lw	x9,4(x2)
   101e8:	01010113          	addi	x2,x2,16
   101ec:	00008067          	ret

000101f0 <test_correlated_branches>:
   101f0:	ff010113          	addi	x2,x2,-16
   101f4:	00112623          	sw	x1,12(x2)
   101f8:	00812423          	sw	x8,8(x2)
   101fc:	00912223          	sw	x9,4(x2)
   10200:	00000413          	li	x8,0
   10204:	0ff00493          	li	x9,255
   10208:	00040513          	mv	x10,x8
   1020c:	00000097          	auipc	x1,0x0
   10210:	f14080e7          	jalr	-236(x1) # 10120 <correlated_branches_kernel>
   10214:	fff44793          	not	x15,x8
   10218:	01879793          	slli	x15,x15,0x18
   1021c:	4187d793          	srai	x15,x15,0x18
   10220:	00140413          	addi	x8,x8,1
   10224:	0ff47413          	andi	x8,x8,255
   10228:	0087f7b3          	and	x15,x15,x8
   1022c:	fff78793          	addi	x15,x15,-1
   10230:	0ff57513          	andi	x10,x10,255
   10234:	0ff7f793          	andi	x15,x15,255
   10238:	00f51863          	bne	x10,x15,10248 <test_correlated_branches+0x58>
   1023c:	fc9416e3          	bne	x8,x9,10208 <test_correlated_branches+0x18>
   10240:	00000513          	li	x10,0
   10244:	0080006f          	j	1024c <test_correlated_branches+0x5c>
   10248:	00100513          	li	x10,1
   1024c:	00c12083          	lw	x1,12(x2)
   10250:	00812403          	lw	x8,8(x2)
   10254:	00412483          	lw	x9,4(x2)
   10258:	01010113          	addi	x2,x2,16
   1025c:	00008067          	ret

00010260 <test_mixed>:
   10260:	ff010113          	addi	x2,x2,-16
   10264:	00112623          	sw	x1,12(x2)
   10268:	00812423          	sw	x8,8(x2)
   1026c:	00912223          	sw	x9,4(x2)
   10270:	01212023          	sw	x18,0(x2)
   10274:	00000413          	li	x8,0
   10278:	0ff00913          	li	x18,255
   1027c:	00040513          	mv	x10,x8
   10280:	00000097          	auipc	x1,0x0
   10284:	e3c080e7          	jalr	-452(x1) # 100bc <uncorrelated_branches_kernel>
   10288:	00050493          	mv	x9,x10
   1028c:	00040513          	mv	x10,x8
   10290:	00000097          	auipc	x1,0x0
   10294:	e90080e7          	jalr	-368(x1) # 10120 <correlated_branches_kernel>
   10298:	0ff57513          	andi	x10,x10,255
   1029c:	fff44793          	not	x15,x8
   102a0:	01879793          	slli	x15,x15,0x18
   102a4:	4187d793          	srai	x15,x15,0x18
   102a8:	00140713          	addi	x14,x8,1
   102ac:	0ff77713          	andi	x14,x14,255
   102b0:	00e7f7b3          	and	x15,x15,x14
   102b4:	fff78793          	addi	x15,x15,-1
   102b8:	0ff7f793          	andi	x15,x15,255
   102bc:	0ff4f493          	andi	x9,x9,255
   102c0:	00849c63          	bne	x9,x8,102d8 <test_mixed+0x78>
   102c4:	00f51e63          	bne	x10,x15,102e0 <test_mixed+0x80>
   102c8:	00070413          	mv	x8,x14
   102cc:	fb2718e3          	bne	x14,x18,1027c <test_mixed+0x1c>
   102d0:	00000513          	li	x10,0
   102d4:	0100006f          	j	102e4 <test_mixed+0x84>
   102d8:	00100513          	li	x10,1
   102dc:	0080006f          	j	102e4 <test_mixed+0x84>
   102e0:	00100513          	li	x10,1
   102e4:	00c12083          	lw	x1,12(x2)
   102e8:	00812403          	lw	x8,8(x2)
   102ec:	00412483          	lw	x9,4(x2)
   102f0:	00012903          	lw	x18,0(x2)
   102f4:	01010113          	addi	x2,x2,16
   102f8:	00008067          	ret

000102fc <fib>:
   102fc:	ff010113          	addi	x2,x2,-16
   10300:	00112623          	sw	x1,12(x2)
   10304:	00812423          	sw	x8,8(x2)
   10308:	00912223          	sw	x9,4(x2)
   1030c:	00050413          	mv	x8,x10
   10310:	00100793          	li	x15,1
   10314:	02a7d263          	ble	x10,x15,10338 <fib+0x3c>
   10318:	fff50513          	addi	x10,x10,-1
   1031c:	00000097          	auipc	x1,0x0
   10320:	fe0080e7          	jalr	-32(x1) # 102fc <fib>
   10324:	00050493          	mv	x9,x10
   10328:	ffe40513          	addi	x10,x8,-2
   1032c:	00000097          	auipc	x1,0x0
   10330:	fd0080e7          	jalr	-48(x1) # 102fc <fib>
   10334:	00a48433          	add	x8,x9,x10
   10338:	00040513          	mv	x10,x8
   1033c:	00c12083          	lw	x1,12(x2)
   10340:	00812403          	lw	x8,8(x2)
   10344:	00412483          	lw	x9,4(x2)
   10348:	01010113          	addi	x2,x2,16
   1034c:	00008067          	ret

00010350 <test_function_call>:
   10350:	ff010113          	addi	x2,x2,-16
   10354:	00112623          	sw	x1,12(x2)
   10358:	00c00513          	li	x10,12
   1035c:	00000097          	auipc	x1,0x0
   10360:	fa0080e7          	jalr	-96(x1) # 102fc <fib>
   10364:	00000513          	li	x10,0
   10368:	00c12083          	lw	x1,12(x2)
   1036c:	01010113          	addi	x2,x2,16
   10370:	00008067          	ret

Disassembly of section .comment:

00000000 <.comment>:
   0:	3a434347          	fmsub.d	f6,f6,f4,f7,rmm
   4:	2820                	fld	f8,80(x8)
   6:	29554e47          	fmsub.s	f28,f10,f21,f5,rmm
   a:	3720                	fld	f8,104(x14)
   c:	322e                	fld	f4,232(x2)
   e:	302e                	fld	f0,232(x2)
	...
0000000 0137 8400 0113 ff01 2623 0011 2423 0081
0000010 2223 01a1 ed37 deff 0d13 effd 0097 0000
0000020 80e7 1280 0413 0005 0097 0000 80e7 1740
0000030 6433 00a4 0097 0000 80e7 1d80 6433 00a4
0000040 0513 00c0 0097 0000 80e7 2640 0863 0004
0000050 ed37 00ba 0d13 badd 006f 00c0 6d37 600d
0000060 0d13 00dd 006f 0000 0793 0005 7513 0015
0000070 f713 0027 0463 0007 6513 0025 f713 0047
0000080 0463 0007 6513 0045 f713 0087 0463 0007
0000090 6513 0085 f713 0107 0463 0007 6513 0105
00000a0 f713 0207 0463 0007 6513 0205 f713 0407
00000b0 0463 0007 6513 0405 9793 0187 d793 4187
00000c0 d463 0007 6513 0805 8067 0000 0793 0005
00000d0 7613 0015 7713 0035 0693 0030 0463 00d7
00000e0 0713 0006 f693 0077 0613 0070 8463 00c6
00000f0 0693 0007 f713 00f7 0613 00f0 0463 00c7
0000100 8713 0006 f693 01f7 0613 01f0 8463 00c6
0000110 0693 0007 f713 03f7 0613 03f0 0463 00c7
0000120 8713 0006 f513 07f7 0693 07f0 0463 00d5
0000130 0513 0007 0713 0ff0 9463 00e7 8513 0007
0000140 8067 0000 0113 ff01 2623 0011 2423 0081
0000150 2223 0091 0413 0000 0493 0ff0 0513 0004
0000160 0097 0000 80e7 f080 7513 0ff5 1c63 0085
0000170 0413 0014 7413 0ff4 12e3 fe94 0513 0000
0000180 006f 0080 0513 0010 2083 00c1 2403 0081
0000190 2483 0041 0113 0101 8067 0000 0113 ff01
00001a0 2623 0011 2423 0081 2223 0091 0413 0000
00001b0 0493 0ff0 0513 0004 0097 0000 80e7 f140
00001c0 4793 fff4 9793 0187 d793 4187 0413 0014
00001d0 7413 0ff4 f7b3 0087 8793 fff7 7513 0ff5
00001e0 f793 0ff7 1863 00f5 16e3 fc94 0513 0000
00001f0 006f 0080 0513 0010 2083 00c1 2403 0081
0000200 2483 0041 0113 0101 8067 0000 0113 ff01
0000210 2623 0011 2423 0081 2223 0091 2023 0121
0000220 0413 0000 0913 0ff0 0513 0004 0097 0000
0000230 80e7 e3c0 0493 0005 0513 0004 0097 0000
0000240 80e7 e900 7513 0ff5 4793 fff4 9793 0187
0000250 d793 4187 0713 0014 7713 0ff7 f7b3 00e7
0000260 8793 fff7 f793 0ff7 f493 0ff4 9c63 0084
0000270 1e63 00f5 0413 0007 18e3 fb27 0513 0000
0000280 006f 0100 0513 0010 006f 0080 0513 0010
0000290 2083 00c1 2403 0081 2483 0041 2903 0001
00002a0 0113 0101 8067 0000 0113 ff01 2623 0011
00002b0 2423 0081 2223 0091 0413 0005 0793 0010
00002c0 d263 02a7 0513 fff5 0097 0000 80e7 fe00
00002d0 0493 0005 0513 ffe4 0097 0000 80e7 fd00
00002e0 8433 00a4 0513 0004 2083 00c1 2403 0081
00002f0 2483 0041 0113 0101 8067 0000 0113 ff01
0000300 2623 0011 0513 00c0 0097 0000 80e7 fa00
0000310 0513 0000 2083 00c1 0113 0101 8067 0000
0000320
